; Function Attrs: mustprogress uwtable
define void @_ZN32pxrInternal_v0_24__pxrReserved__7TfDebug8_SetNodeERNS0_5_NodeEPKcb(ptr noundef nonnull align 4 dereferenceable(4) %0, ptr noundef %1, i1 noundef zeroext %2) local_unnamed_addr #0 align 2 {
  %4 = load atomic i64, ptr @_ZN32pxrInternal_v0_24__pxrReserved__11TfSingletonINS_22Tf_DebugSymbolRegistryEE9_instanceE seq_cst, align 8
  %.0.i.i.i = inttoptr i64 %4 to ptr
  %.not.i.i = icmp eq i64 %4, 0
  br i1 %.not.i.i, label %5, label %_ZN32pxrInternal_v0_24__pxrReserved__22Tf_DebugSymbolRegistry12_GetInstanceEv.exit

5:                                                ; preds = %3
  %6 = tail call noundef ptr @_ZN32pxrInternal_v0_24__pxrReserved__11TfSingletonINS_22Tf_DebugSymbolRegistryEE15_CreateInstanceERSt6atomicIPS1_E(ptr noundef nonnull align 8 dereferenceable(8) @_ZN32pxrInternal_v0_24__pxrReserved__11TfSingletonINS_22Tf_DebugSymbolRegistryEE9_instanceE)
  br label %_ZN32pxrInternal_v0_24__pxrReserved__22Tf_DebugSymbolRegistry12_GetInstanceEv.exit

_ZN32pxrInternal_v0_24__pxrReserved__22Tf_DebugSymbolRegistry12_GetInstanceEv.exit: ; preds = %3, %5
  %.0.i.i = phi ptr [ %.0.i.i.i, %3 ], [ %6, %5 ]
  tail call void @_ZN32pxrInternal_v0_24__pxrReserved__22Tf_DebugSymbolRegistry10_SetByNameERNS_7TfDebug5_NodeEPKcb(ptr noundef nonnull align 8 dereferenceable(176) %.0.i.i, ptr noundef nonnull align 4 dereferenceable(4) %0, ptr noundef %1, i1 noundef zeroext %2)
  ret void
}